target datalayout = "e-m:e-p270:32:32-p271:32:32-p272:64:64-i64:64-i128:128-f80:128-n8:16:32:64-S128"
target triple = "x86_64-pc-linux-gnu"

%struct.crypto_ex_data_st = type { ptr }
%struct.ssl_st = type { i32, i16, i16, ptr, ptr, ptr, ptr, ptr, i32, i32, ptr, ptr, i32, i32, ptr, ptr, ptr, ptr, ptr, ptr, ptr, ptr, i32, i32, [32 x i8], ptr, ptr, ptr, ptr, ptr, ptr, ptr, i64, %struct.crypto_ex_data_st, ptr, i32, i32, i32, i32, i16, ptr, i32, i64, ptr, ptr, ptr, ptr, ptr, ptr, i32, i32, ptr, ptr, i8, i8, i32 }
%struct.ssl_protocol_method_st = type { i8, ptr, ptr, ptr, ptr, ptr, ptr, ptr, ptr, ptr, ptr, ptr, i32, ptr, ptr }
%struct.ssl3_state_st = type { [8 x i8], [8 x i8], [32 x i8], [32 x i8], i8, i8, %struct.ssl3_buffer_st, %struct.ssl3_buffer_st, %struct.ssl3_record_st, i8, i32, i32, i32, i32, ptr, ptr, %struct.env_md_ctx_st, %struct.env_md_ctx_st, i8, i32, [2 x i8], i32, i8, i8, ptr, ptr, ptr, %struct.anon, [64 x i8], i8, [64 x i8], i8, i32, i32, ptr, i64, ptr, i64, i8, [64 x i8] }
%struct.ssl3_buffer_st = type { ptr, i16, i16, i16 }
%struct.ssl3_record_st = type { i8, i16, ptr }
%struct.env_md_ctx_st = type { ptr, ptr, ptr, ptr }
%struct.anon = type { [64 x i8], i32, [64 x i8], i32, i64, i32, ptr, i32, i32, %union.anon, %union.anon.0, i8, i32, ptr, ptr, i64, ptr, i8, i8, i8, i8, i32, i8, ptr, i64, i8, ptr, i8, i8, i8, %struct.ssl_ecdh_ctx_st, ptr, i16 }
%union.anon = type { i32 }
%union.anon.0 = type { i16 }
%struct.ssl_ecdh_ctx_st = type { ptr, ptr }
%struct.cbs_st = type { ptr, i64 }

@.str = private unnamed_addr constant [117 x i8] c"generated/home/dtcxzyw/WorkSpace/Projects/compilers/llvm-opt-benchmark/bench/libquic/libquic/boringssl/ssl/ssl_lib.c\00", align 1

; Function Attrs: nounwind uwtable
define hidden zeroext i16 @ssl3_get_max_server_version(ptr noundef %0) #0 {
  %2 = alloca i16, align 2
  %3 = alloca ptr, align 8
  %4 = alloca i16, align 2
  %5 = alloca i32, align 4
  store ptr %0, ptr %3, align 8, !tbaa !80
  call void @llvm.lifetime.start.p0(i64 2, ptr %4) #8
  %6 = load ptr, ptr %3, align 8, !tbaa !80
  %7 = getelementptr inbounds nuw %struct.ssl_st, ptr %6, i32 0, i32 3
  %8 = load ptr, ptr %7, align 8, !tbaa !117
  %9 = getelementptr inbounds nuw %struct.ssl_protocol_method_st, ptr %8, i32 0, i32 0
  %10 = load i8, ptr %9, align 8, !tbaa !192
  %11 = icmp ne i8 %10, 0
  br i1 %11, label %12, label %51

12:                                               ; preds = %1
  %13 = load ptr, ptr %3, align 8, !tbaa !80
  %14 = getelementptr inbounds nuw %struct.ssl_st, ptr %13, i32 0, i32 1
  %15 = load i16, ptr %14, align 4, !tbaa !91
  %16 = zext i16 %15 to i32
  %17 = icmp ne i32 %16, 0
  br i1 %17, label %18, label %23

18:                                               ; preds = %12
  %19 = load ptr, ptr %3, align 8, !tbaa !80
  %20 = getelementptr inbounds nuw %struct.ssl_st, ptr %19, i32 0, i32 1
  %21 = load i16, ptr %20, align 4, !tbaa !91
  %22 = zext i16 %21 to i32
  br label %24

23:                                               ; preds = %12
  br label %24

24:                                               ; preds = %23, %18
  %25 = phi i32 [ %22, %18 ], [ 65277, %23 ]
  %26 = trunc i32 %25 to i16
  store i16 %26, ptr %4, align 2, !tbaa !63
  %27 = load ptr, ptr %3, align 8, !tbaa !80
  %28 = getelementptr inbounds nuw %struct.ssl_st, ptr %27, i32 0, i32 35
  %29 = load i32, ptr %28, align 8, !tbaa !92
  %30 = zext i32 %29 to i64
  %31 = and i64 %30, 134217728
  %32 = icmp ne i64 %31, 0
  br i1 %32, label %38, label %33

33:                                               ; preds = %24
  %34 = load i16, ptr %4, align 2, !tbaa !63
  %35 = zext i16 %34 to i32
  %36 = icmp sge i32 65277, %35
  br i1 %36, label %37, label %38

37:                                               ; preds = %33
  store i16 -259, ptr %2, align 2
  store i32 1, ptr %5, align 4
  br label %114

38:                                               ; preds = %33, %24
  %39 = load ptr, ptr %3, align 8, !tbaa !80
  %40 = getelementptr inbounds nuw %struct.ssl_st, ptr %39, i32 0, i32 35
  %41 = load i32, ptr %40, align 8, !tbaa !92
  %42 = zext i32 %41 to i64
  %43 = and i64 %42, 67108864
  %44 = icmp ne i64 %43, 0
  br i1 %44, label %50, label %45

45:                                               ; preds = %38
  %46 = load i16, ptr %4, align 2, !tbaa !63
  %47 = zext i16 %46 to i32
  %48 = icmp sge i32 65279, %47
  br i1 %48, label %49, label %50

49:                                               ; preds = %45
  store i16 -257, ptr %2, align 2
  store i32 1, ptr %5, align 4
  br label %114

50:                                               ; preds = %45, %38
  store i16 0, ptr %2, align 2
  store i32 1, ptr %5, align 4
  br label %114

51:                                               ; preds = %1
  %52 = load ptr, ptr %3, align 8, !tbaa !80
  %53 = getelementptr inbounds nuw %struct.ssl_st, ptr %52, i32 0, i32 1
  %54 = load i16, ptr %53, align 4, !tbaa !91
  %55 = zext i16 %54 to i32
  %56 = icmp ne i32 %55, 0
  br i1 %56, label %57, label %62

57:                                               ; preds = %51
  %58 = load ptr, ptr %3, align 8, !tbaa !80
  %59 = getelementptr inbounds nuw %struct.ssl_st, ptr %58, i32 0, i32 1
  %60 = load i16, ptr %59, align 4, !tbaa !91
  %61 = zext i16 %60 to i32
  br label %63

62:                                               ; preds = %51
  br label %63

63:                                               ; preds = %62, %57
  %64 = phi i32 [ %61, %57 ], [ 771, %62 ]
  %65 = trunc i32 %64 to i16
  store i16 %65, ptr %4, align 2, !tbaa !63
  %66 = load ptr, ptr %3, align 8, !tbaa !80
  %67 = getelementptr inbounds nuw %struct.ssl_st, ptr %66, i32 0, i32 35
  %68 = load i32, ptr %67, align 8, !tbaa !92
  %69 = zext i32 %68 to i64
  %70 = and i64 %69, 134217728
  %71 = icmp ne i64 %70, 0
  br i1 %71, label %77, label %72

72:                                               ; preds = %63
  %73 = load i16, ptr %4, align 2, !tbaa !63
  %74 = zext i16 %73 to i32
  %75 = icmp sle i32 771, %74
  br i1 %75, label %76, label %77

76:                                               ; preds = %72
  store i16 771, ptr %2, align 2
  store i32 1, ptr %5, align 4
  br label %114

77:                                               ; preds = %72, %63
  %78 = load ptr, ptr %3, align 8, !tbaa !80
  %79 = getelementptr inbounds nuw %struct.ssl_st, ptr %78, i32 0, i32 35
  %80 = load i32, ptr %79, align 8, !tbaa !92
  %81 = zext i32 %80 to i64
  %82 = and i64 %81, 268435456
  %83 = icmp ne i64 %82, 0
  br i1 %83, label %89, label %84

84:                                               ; preds = %77
  %85 = load i16, ptr %4, align 2, !tbaa !63
  %86 = zext i16 %85 to i32
  %87 = icmp sle i32 770, %86
  br i1 %87, label %88, label %89

88:                                               ; preds = %84
  store i16 770, ptr %2, align 2
  store i32 1, ptr %5, align 4
  br label %114

89:                                               ; preds = %84, %77
  %90 = load ptr, ptr %3, align 8, !tbaa !80
  %91 = getelementptr inbounds nuw %struct.ssl_st, ptr %90, i32 0, i32 35
  %92 = load i32, ptr %91, align 8, !tbaa !92
  %93 = zext i32 %92 to i64
  %94 = and i64 %93, 67108864
  %95 = icmp ne i64 %94, 0
  br i1 %95, label %101, label %96

96:                                               ; preds = %89
  %97 = load i16, ptr %4, align 2, !tbaa !63
  %98 = zext i16 %97 to i32
  %99 = icmp sle i32 769, %98
  br i1 %99, label %100, label %101

100:                                              ; preds = %96
  store i16 769, ptr %2, align 2
  store i32 1, ptr %5, align 4
  br label %114

101:                                              ; preds = %96, %89
  %102 = load ptr, ptr %3, align 8, !tbaa !80
  %103 = getelementptr inbounds nuw %struct.ssl_st, ptr %102, i32 0, i32 35
  %104 = load i32, ptr %103, align 8, !tbaa !92
  %105 = zext i32 %104 to i64
  %106 = and i64 %105, 33554432
  %107 = icmp ne i64 %106, 0
  br i1 %107, label %113, label %108

108:                                              ; preds = %101
  %109 = load i16, ptr %4, align 2, !tbaa !63
  %110 = zext i16 %109 to i32
  %111 = icmp sle i32 768, %110
  br i1 %111, label %112, label %113

112:                                              ; preds = %108
  store i16 768, ptr %2, align 2
  store i32 1, ptr %5, align 4
  br label %114

113:                                              ; preds = %108, %101
  store i16 0, ptr %2, align 2
  store i32 1, ptr %5, align 4
  br label %114

114:                                              ; preds = %113, %112, %100, %88, %76, %50, %49, %37
  call void @llvm.lifetime.end.p0(i64 2, ptr %4) #8
  %115 = load i16, ptr %2, align 2
  ret i16 %115
}

; Function Attrs: nounwind uwtable
define hidden ptr @ssl_bytes_to_cipher_list(ptr noundef %0, ptr noundef %1) #0 {
  %3 = alloca ptr, align 8
  %4 = alloca ptr, align 8
  %5 = alloca ptr, align 8
  %6 = alloca %struct.cbs_st, align 8
  %7 = alloca ptr, align 8
  %8 = alloca ptr, align 8
  %9 = alloca i32, align 4
  %10 = alloca i16, align 2
  %11 = alloca i16, align 2
  store ptr %0, ptr %4, align 8, !tbaa !80
  store ptr %1, ptr %5, align 8, !tbaa !205
  call void @llvm.lifetime.start.p0(i64 16, ptr %6) #8
  %12 = load ptr, ptr %5, align 8, !tbaa !205
  call void @llvm.memcpy.p0.p0.i64(ptr align 8 %6, ptr align 8 %12, i64 16, i1 false), !tbaa.struct !207
  call void @llvm.lifetime.start.p0(i64 8, ptr %7) #8
  call void @llvm.lifetime.start.p0(i64 8, ptr %8) #8
  %13 = load ptr, ptr %4, align 8, !tbaa !80
  %14 = getelementptr inbounds nuw %struct.ssl_st, ptr %13, i32 0, i32 14
  %15 = load ptr, ptr %14, align 8, !tbaa !152
  %16 = icmp ne ptr %15, null
  br i1 %16, label %17, label %22

17:                                               ; preds = %2
  %18 = load ptr, ptr %4, align 8, !tbaa !80
  %19 = getelementptr inbounds nuw %struct.ssl_st, ptr %18, i32 0, i32 14
  %20 = load ptr, ptr %19, align 8, !tbaa !152
  %21 = getelementptr inbounds nuw %struct.ssl3_state_st, ptr %20, i32 0, i32 32
  store i32 0, ptr %21, align 4, !tbaa !200
  br label %22

22:                                               ; preds = %17, %2
  %23 = call i64 @CBS_len(ptr noundef %6)
  %24 = urem i64 %23, 2
  %25 = icmp ne i64 %24, 0
  br i1 %25, label %26, label %27

26:                                               ; preds = %22
  call void @ERR_put_error(i32 noundef 16, i32 noundef 0, i32 noundef 148, ptr noundef @.str, i32 noundef 1416)
  store ptr null, ptr %3, align 8
  store i32 1, ptr %9, align 4
  br label %125

27:                                               ; preds = %22
  %28 = call ptr @sk_new_null()
  store ptr %28, ptr %8, align 8, !tbaa !201
  %29 = load ptr, ptr %8, align 8, !tbaa !201
  %30 = icmp eq ptr %29, null
  br i1 %30, label %31, label %32

31:                                               ; preds = %27
  call void @ERR_put_error(i32 noundef 16, i32 noundef 0, i32 noundef 65, ptr noundef @.str, i32 noundef 1422)
  br label %123

32:                                               ; preds = %27
  br label %33

33:                                               ; preds = %120, %118, %32
  %34 = call i64 @CBS_len(ptr noundef %6)
  %35 = icmp ugt i64 %34, 0
  br i1 %35, label %36, label %121

36:                                               ; preds = %33
  call void @llvm.lifetime.start.p0(i64 2, ptr %10) #8
  %37 = call i32 @CBS_get_u16(ptr noundef %6, ptr noundef %10)
  %38 = icmp ne i32 %37, 0
  br i1 %38, label %40, label %39

39:                                               ; preds = %36
  call void @ERR_put_error(i32 noundef 16, i32 noundef 0, i32 noundef 68, ptr noundef @.str, i32 noundef 1430)
  store i32 2, ptr %9, align 4
  br label %118

40:                                               ; preds = %36
  %41 = load ptr, ptr %4, align 8, !tbaa !80
  %42 = getelementptr inbounds nuw %struct.ssl_st, ptr %41, i32 0, i32 14
  %43 = load ptr, ptr %42, align 8, !tbaa !152
  %44 = icmp ne ptr %43, null
  br i1 %44, label %45, label %64

45:                                               ; preds = %40
  %46 = load i16, ptr %10, align 2, !tbaa !63
  %47 = zext i16 %46 to i32
  %48 = icmp eq i32 %47, 255
  br i1 %48, label %49, label %64

49:                                               ; preds = %45
  %50 = load ptr, ptr %4, align 8, !tbaa !80
  %51 = getelementptr inbounds nuw %struct.ssl_st, ptr %50, i32 0, i32 14
  %52 = load ptr, ptr %51, align 8, !tbaa !152
  %53 = getelementptr inbounds nuw %struct.ssl3_state_st, ptr %52, i32 0, i32 5
  %54 = load i8, ptr %53, align 1, !tbaa !177
  %55 = icmp ne i8 %54, 0
  br i1 %55, label %56, label %59

56:                                               ; preds = %49
  call void @ERR_put_error(i32 noundef 16, i32 noundef 0, i32 noundef 206, ptr noundef @.str, i32 noundef 1438)
  %57 = load ptr, ptr %4, align 8, !tbaa !80
  %58 = call i32 @ssl3_send_alert(ptr noundef %57, i32 noundef 2, i32 noundef 40)
  store i32 2, ptr %9, align 4
  br label %118

59:                                               ; preds = %49
  %60 = load ptr, ptr %4, align 8, !tbaa !80
  %61 = getelementptr inbounds nuw %struct.ssl_st, ptr %60, i32 0, i32 14
  %62 = load ptr, ptr %61, align 8, !tbaa !152
  %63 = getelementptr inbounds nuw %struct.ssl3_state_st, ptr %62, i32 0, i32 32
  store i32 1, ptr %63, align 4, !tbaa !200
  store i32 3, ptr %9, align 4
  br label %118, !llvm.loop !208

64:                                               ; preds = %45, %40
  %65 = load ptr, ptr %4, align 8, !tbaa !80
  %66 = getelementptr inbounds nuw %struct.ssl_st, ptr %65, i32 0, i32 14
  %67 = load ptr, ptr %66, align 8, !tbaa !152
  %68 = icmp ne ptr %67, null
  br i1 %68, label %69, label %106

69:                                               ; preds = %64
  %70 = load i16, ptr %10, align 2, !tbaa !63
  %71 = zext i16 %70 to i32
  %72 = icmp eq i32 %71, 22016
  br i1 %72, label %73, label %106

73:                                               ; preds = %69
  call void @llvm.lifetime.start.p0(i64 2, ptr %11) #8
  %74 = load ptr, ptr %4, align 8, !tbaa !80
  %75 = call zeroext i16 @ssl3_get_max_server_version(ptr noundef %74)
  store i16 %75, ptr %11, align 2, !tbaa !63
  %76 = load ptr, ptr %4, align 8, !tbaa !80
  %77 = getelementptr inbounds nuw %struct.ssl_st, ptr %76, i32 0, i32 3
  %78 = load ptr, ptr %77, align 8, !tbaa !117
  %79 = getelementptr inbounds nuw %struct.ssl_protocol_method_st, ptr %78, i32 0, i32 0
  %80 = load i8, ptr %79, align 8, !tbaa !192
  %81 = sext i8 %80 to i32
  %82 = icmp ne i32 %81, 0
  br i1 %82, label %83, label %92

83:                                               ; preds = %73
  %84 = load ptr, ptr %4, align 8, !tbaa !80
  %85 = getelementptr inbounds nuw %struct.ssl_st, ptr %84, i32 0, i32 0
  %86 = load i32, ptr %85, align 8, !tbaa !178
  %87 = trunc i32 %86 to i16
  %88 = zext i16 %87 to i32
  %89 = load i16, ptr %11, align 2, !tbaa !63
  %90 = zext i16 %89 to i32
  %91 = icmp sgt i32 %88, %90
  br i1 %91, label %101, label %104

92:                                               ; preds = %73
  %93 = load ptr, ptr %4, align 8, !tbaa !80
  %94 = getelementptr inbounds nuw %struct.ssl_st, ptr %93, i32 0, i32 0
  %95 = load i32, ptr %94, align 8, !tbaa !178
  %96 = trunc i32 %95 to i16
  %97 = zext i16 %96 to i32
  %98 = load i16, ptr %11, align 2, !tbaa !63
  %99 = zext i16 %98 to i32
  %100 = icmp slt i32 %97, %99
  br i1 %100, label %101, label %104

101:                                              ; preds = %92, %83
  call void @ERR_put_error(i32 noundef 16, i32 noundef 0, i32 noundef 157, ptr noundef @.str, i32 noundef 1451)
  %102 = load ptr, ptr %4, align 8, !tbaa !80
  %103 = call i32 @ssl3_send_alert(ptr noundef %102, i32 noundef 2, i32 noundef 86)
  store i32 2, ptr %9, align 4
  br label %105

104:                                              ; preds = %92, %83
  store i32 3, ptr %9, align 4
  br label %105, !llvm.loop !208

105:                                              ; preds = %101, %104
  call void @llvm.lifetime.end.p0(i64 2, ptr %11) #8
  br label %118

106:                                              ; preds = %69, %64
  %107 = load i16, ptr %10, align 2, !tbaa !63
  %108 = call ptr @SSL_get_cipher_by_value(i16 noundef zeroext %107)
  store ptr %108, ptr %7, align 8, !tbaa !202
  %109 = load ptr, ptr %7, align 8, !tbaa !202
  %110 = icmp ne ptr %109, null
  br i1 %110, label %111, label %117

111:                                              ; preds = %106
  %112 = load ptr, ptr %8, align 8, !tbaa !201
  %113 = load ptr, ptr %7, align 8, !tbaa !202
  %114 = call i64 @sk_push(ptr noundef %112, ptr noundef %113)
  %115 = icmp ne i64 %114, 0
  br i1 %115, label %117, label %116

116:                                              ; preds = %111
  call void @ERR_put_error(i32 noundef 16, i32 noundef 0, i32 noundef 65, ptr noundef @.str, i32 noundef 1460)
  store i32 2, ptr %9, align 4
  br label %118

117:                                              ; preds = %111, %106
  store i32 0, ptr %9, align 4
  br label %118

118:                                              ; preds = %116, %56, %39, %117, %105, %59
  call void @llvm.lifetime.end.p0(i64 2, ptr %10) #8
  %119 = load i32, ptr %9, align 4
  switch i32 %119, label %125 [
    i32 0, label %120
    i32 3, label %33
    i32 2, label %123
  ]

120:                                              ; preds = %118
  br label %33, !llvm.loop !208

121:                                              ; preds = %33
  %122 = load ptr, ptr %8, align 8, !tbaa !201
  store ptr %122, ptr %3, align 8
  store i32 1, ptr %9, align 4
  br label %125

123:                                              ; preds = %118, %31
  %124 = load ptr, ptr %8, align 8, !tbaa !201
  call void @sk_free(ptr noundef %124)
  store ptr null, ptr %3, align 8
  store i32 1, ptr %9, align 4
  br label %125

125:                                              ; preds = %123, %121, %118, %26
  call void @llvm.lifetime.end.p0(i64 8, ptr %8) #8
  call void @llvm.lifetime.end.p0(i64 8, ptr %7) #8
  call void @llvm.lifetime.end.p0(i64 16, ptr %6) #8
  %126 = load ptr, ptr %3, align 8
  ret ptr %126
}