; Function Attrs: nounwind uwtable
define hidden ptr @ssl_bytes_to_cipher_list(ptr noundef %0, ptr noundef readonly captures(none) %1) local_unnamed_addr #0 {
  %3 = alloca %struct.cbs_st, align 8
  %4 = alloca i16, align 2
  call void @llvm.lifetime.start.p0(i64 16, ptr nonnull %3) #21
  call void @llvm.memcpy.p0.p0.i64(ptr noundef nonnull align 8 dereferenceable(16) %3, ptr noundef nonnull align 8 dereferenceable(16) %1, i64 16, i1 false), !tbaa.struct !185
  %5 = getelementptr inbounds nuw i8, ptr %0, i64 80
  %6 = load ptr, ptr %5, align 8, !tbaa !136
  %.not = icmp eq ptr %6, null
  br i1 %.not, label %9, label %7

7:                                                ; preds = %2
  %8 = getelementptr inbounds nuw i8, ptr %6, i64 724
  store i32 0, ptr %8, align 4, !tbaa !182
  br label %9

9:                                                ; preds = %7, %2
  %10 = call i64 @CBS_len(ptr noundef nonnull %3) #21
  %11 = and i64 %10, 1
  %.not31 = icmp eq i64 %11, 0
  br i1 %.not31, label %13, label %12

12:                                               ; preds = %9
  call void @ERR_put_error(i32 noundef 16, i32 noundef 0, i32 noundef 148, ptr noundef nonnull @.str, i32 noundef 1416) #21
  br label %.loopexit

13:                                               ; preds = %9
  %14 = call ptr @sk_new_null() #21
  %15 = icmp eq ptr %14, null
  br i1 %15, label %20, label %.preheader

.preheader:                                       ; preds = %13
  %16 = call i64 @CBS_len(ptr noundef nonnull %3) #21
  %.not3241 = icmp eq i64 %16, 0
  br i1 %.not3241, label %.loopexit, label %.lr.ph

.lr.ph:                                           ; preds = %.preheader
  %17 = getelementptr inbounds nuw i8, ptr %0, i64 8
  %18 = getelementptr inbounds nuw i8, ptr %0, i64 4
  %19 = getelementptr inbounds nuw i8, ptr %0, i64 264
  br label %21

20:                                               ; preds = %13
  call void @ERR_put_error(i32 noundef 16, i32 noundef 0, i32 noundef 65, ptr noundef nonnull @.str, i32 noundef 1422) #21
  br label %84

21:                                               ; preds = %.lr.ph, %82
  call void @llvm.lifetime.start.p0(i64 2, ptr nonnull %4) #21
  %22 = call i32 @CBS_get_u16(ptr noundef nonnull %3, ptr noundef nonnull %4) #21
  %.not33 = icmp eq i32 %22, 0
  br i1 %.not33, label %23, label %24

23:                                               ; preds = %21
  call void @ERR_put_error(i32 noundef 16, i32 noundef 0, i32 noundef 68, ptr noundef nonnull @.str, i32 noundef 1430) #21
  br label %.thread

24:                                               ; preds = %21
  %25 = load ptr, ptr %5, align 8, !tbaa !136
  %26 = icmp ne ptr %25, null
  %27 = load i16, ptr %4, align 2
  %28 = icmp eq i16 %27, 255
  %or.cond = select i1 %26, i1 %28, i1 false
  br i1 %or.cond, label %29, label %36

29:                                               ; preds = %24
  %30 = getelementptr inbounds nuw i8, ptr %25, i64 81
  %31 = load i8, ptr %30, align 1, !tbaa !158
  %.not37 = icmp eq i8 %31, 0
  br i1 %.not37, label %34, label %32

32:                                               ; preds = %29
  call void @ERR_put_error(i32 noundef 16, i32 noundef 0, i32 noundef 206, ptr noundef nonnull @.str, i32 noundef 1438) #21
  %33 = call i32 @ssl3_send_alert(ptr noundef nonnull %0, i32 noundef 2, i32 noundef 40) #21
  br label %.thread

34:                                               ; preds = %29
  %35 = getelementptr inbounds nuw i8, ptr %25, i64 724
  store i32 1, ptr %35, align 4, !tbaa !182
  br label %82, !llvm.loop !187

36:                                               ; preds = %24
  %37 = icmp eq i16 %27, 22016
  %or.cond5 = select i1 %26, i1 %37, i1 false
  br i1 %or.cond5, label %38, label %77

38:                                               ; preds = %36
  %39 = load ptr, ptr %17, align 8, !tbaa !106
  %40 = load i8, ptr %39, align 8, !tbaa !174
  %.not.i = icmp eq i8 %40, 0
  %41 = load i16, ptr %18, align 4, !tbaa !80
  %.not36.i = icmp eq i16 %41, 0
  %42 = load i32, ptr %19, align 8, !tbaa !81
  %43 = zext i32 %42 to i64
  %44 = and i64 %43, 134217728
  %45 = icmp eq i64 %44, 0
  br i1 %.not.i, label %53, label %46

46:                                               ; preds = %38
  %narrow.i = select i1 %.not36.i, i16 -259, i16 %41
  %47 = icmp ult i16 %narrow.i, -258
  %or.cond.i = select i1 %45, i1 %47, i1 false
  br i1 %or.cond.i, label %ssl3_get_max_server_version.exit, label %48

48:                                               ; preds = %46
  %49 = and i64 %43, 67108864
  %50 = icmp eq i64 %49, 0
  %51 = icmp ult i16 %narrow.i, -256
  %or.cond5.i = select i1 %50, i1 %51, i1 false
  %52 = select i1 %or.cond5.i, i32 65279, i32 0
  br label %ssl3_get_max_server_version.exit

53:                                               ; preds = %38
  %narrow40.i = select i1 %.not36.i, i16 771, i16 %41
  %54 = icmp ugt i16 %narrow40.i, 770
  %or.cond8.i = select i1 %45, i1 %54, i1 false
  br i1 %or.cond8.i, label %71, label %55

55:                                               ; preds = %53
  %56 = and i64 %43, 268435456
  %57 = icmp eq i64 %56, 0
  %58 = icmp ugt i16 %narrow40.i, 769
  %or.cond11.i = select i1 %57, i1 %58, i1 false
  br i1 %or.cond11.i, label %71, label %59

59:                                               ; preds = %55
  %60 = and i64 %43, 67108864
  %61 = icmp eq i64 %60, 0
  %62 = icmp ugt i16 %narrow40.i, 768
  %or.cond14.i = select i1 %61, i1 %62, i1 false
  br i1 %or.cond14.i, label %71, label %63

63:                                               ; preds = %59
  %64 = and i64 %43, 33554432
  %65 = icmp eq i64 %64, 0
  %66 = icmp ugt i16 %narrow40.i, 767
  %or.cond17.i = select i1 %65, i1 %66, i1 false
  %67 = select i1 %or.cond17.i, i32 768, i32 0
  br label %71

ssl3_get_max_server_version.exit:                 ; preds = %48, %46
  %.0.i = phi i32 [ 65277, %46 ], [ %52, %48 ]
  %68 = load i32, ptr %0, align 8, !tbaa !159
  %69 = and i32 %68, 65535
  %70 = icmp samesign ugt i32 %69, %.0.i
  br i1 %70, label %75, label %82, !llvm.loop !187

71:                                               ; preds = %53, %55, %59, %63
  %.0.i.ph = phi i32 [ %67, %63 ], [ 769, %59 ], [ 770, %55 ], [ 771, %53 ]
  %72 = load i32, ptr %0, align 8, !tbaa !159
  %73 = and i32 %72, 65535
  %74 = icmp samesign ult i32 %73, %.0.i.ph
  br i1 %74, label %75, label %82, !llvm.loop !187

75:                                               ; preds = %71, %ssl3_get_max_server_version.exit
  call void @ERR_put_error(i32 noundef 16, i32 noundef 0, i32 noundef 157, ptr noundef nonnull @.str, i32 noundef 1451) #21
  %76 = call i32 @ssl3_send_alert(ptr noundef nonnull %0, i32 noundef 2, i32 noundef 86) #21
  br label %.thread

77:                                               ; preds = %36
  %78 = call ptr @SSL_get_cipher_by_value(i16 noundef zeroext %27) #21
  %.not34 = icmp eq ptr %78, null
  br i1 %.not34, label %82, label %79

79:                                               ; preds = %77
  %80 = call i64 @sk_push(ptr noundef nonnull %14, ptr noundef nonnull %78) #21
  %.not35 = icmp eq i64 %80, 0
  br i1 %.not35, label %81, label %82

81:                                               ; preds = %79
  call void @ERR_put_error(i32 noundef 16, i32 noundef 0, i32 noundef 65, ptr noundef nonnull @.str, i32 noundef 1460) #21
  br label %.thread

.thread:                                          ; preds = %32, %81, %23, %75
  call void @llvm.lifetime.end.p0(i64 2, ptr nonnull %4) #21
  br label %84

82:                                               ; preds = %77, %79, %71, %ssl3_get_max_server_version.exit, %34
  call void @llvm.lifetime.end.p0(i64 2, ptr nonnull %4) #21
  %83 = call i64 @CBS_len(ptr noundef nonnull %3) #21
  %.not32 = icmp eq i64 %83, 0
  br i1 %.not32, label %.loopexit, label %21

84:                                               ; preds = %.thread, %20
  call void @sk_free(ptr noundef %14) #21
  br label %.loopexit

.loopexit:                                        ; preds = %82, %.preheader, %84, %12
  %.0 = phi ptr [ null, %12 ], [ null, %84 ], [ %14, %.preheader ], [ %14, %82 ]
  call void @llvm.lifetime.end.p0(i64 16, ptr nonnull %3) #21
  ret ptr %.0
}